target datalayout = "e-m:e-p270:32:32-p271:32:32-p272:64:64-i64:64-i128:128-f80:128-n8:16:32:64-S128"
target triple = "x86_64-pc-linux-gnu"

%"struct.Luau::AstName" = type { ptr }
%struct.JsonEncoderFixture = type { %"class.Luau::Allocator", %"class.Luau::AstNameTable" }
%"class.Luau::Allocator" = type { ptr, i64 }
%"class.Luau::AstNameTable" = type { %"class.Luau::DenseHashSet", ptr }
%"class.Luau::DenseHashSet" = type { %"class.Luau::detail::DenseHashTable" }
%"class.Luau::detail::DenseHashTable" = type <{ ptr, i64, i64, %"struct.Luau::AstNameTable::Entry", %"struct.Luau::AstNameTable::EntryHash", %"struct.std::equal_to", [6 x i8] }>
%"struct.Luau::AstNameTable::Entry" = type { %"struct.Luau::AstName", i32, i32 }
%"struct.Luau::AstNameTable::EntryHash" = type { i8 }
%"struct.std::equal_to" = type { i8 }

; Function Attrs: mustprogress nounwind uwtable
define linkonce_odr dso_local void @_ZN4Luau6detail16ItemInterfaceSetINS_12AstNameTable5EntryEE7destroyEPS3_m(ptr noundef %0, i64 noundef %1) #1 comdat align 2 {
  %3 = alloca ptr, align 8
  %4 = alloca i64, align 8
  %5 = alloca i64, align 8
  store ptr %0, ptr %3, align 8
  store i64 %1, ptr %4, align 8
  store i64 0, ptr %5, align 8
  br label %6

6:                                                ; preds = %11, %2
  %7 = load i64, ptr %5, align 8
  %8 = load i64, ptr %4, align 8
  %9 = icmp ult i64 %7, %8
  br i1 %9, label %10, label %14

10:                                               ; preds = %6
  br label %11

11:                                               ; preds = %10
  %12 = load i64, ptr %5, align 8
  %13 = add i64 %12, 1
  store i64 %13, ptr %5, align 8
  br label %6, !llvm.loop !24

14:                                               ; preds = %6
  ret void
}

; Function Attrs: noreturn nounwind uwtable
define linkonce_odr hidden void @__clang_call_terminate(ptr noundef %0) #6 comdat {
  %2 = call ptr @__cxa_begin_catch(ptr %0) #10
  call void @_ZSt9terminatev() #11
  unreachable
}

; Function Attrs: mustprogress uwtable
define linkonce_odr dso_local void @_ZN4Luau6detail14DenseHashTableINS_12AstNameTable5EntryES3_S3_NS0_16ItemInterfaceSetIS3_EENS2_9EntryHashESt8equal_toIS3_EE7destroyEv(ptr noundef nonnull align 8 dereferenceable(42) %0) #4 comdat align 2 {
  %2 = alloca ptr, align 8
  store ptr %0, ptr %2, align 8
  %3 = load ptr, ptr %2, align 8
  %4 = getelementptr inbounds %"class.Luau::detail::DenseHashTable", ptr %3, i32 0, i32 0
  %5 = load ptr, ptr %4, align 8
  %6 = getelementptr inbounds %"class.Luau::detail::DenseHashTable", ptr %3, i32 0, i32 1
  %7 = load i64, ptr %6, align 8
  call void @_ZN4Luau6detail16ItemInterfaceSetINS_12AstNameTable5EntryEE7destroyEPS3_m(ptr noundef %5, i64 noundef %7)
  %8 = getelementptr inbounds %"class.Luau::detail::DenseHashTable", ptr %3, i32 0, i32 0
  %9 = load ptr, ptr %8, align 8
  call void @_ZdlPv(ptr noundef %9) #10
  %10 = getelementptr inbounds %"class.Luau::detail::DenseHashTable", ptr %3, i32 0, i32 0
  store ptr null, ptr %10, align 8
  %11 = getelementptr inbounds %"class.Luau::detail::DenseHashTable", ptr %3, i32 0, i32 1
  store i64 0, ptr %11, align 8
  ret void
}

; Function Attrs: mustprogress nounwind uwtable
define linkonce_odr dso_local void @_ZN4Luau6detail14DenseHashTableINS_12AstNameTable5EntryES3_S3_NS0_16ItemInterfaceSetIS3_EENS2_9EntryHashESt8equal_toIS3_EED2Ev(ptr noundef nonnull align 8 dereferenceable(42) %0) unnamed_addr #1 comdat align 2 personality ptr @__gxx_personality_v0 {
  %2 = alloca ptr, align 8
  store ptr %0, ptr %2, align 8
  %3 = load ptr, ptr %2, align 8
  %4 = getelementptr inbounds %"class.Luau::detail::DenseHashTable", ptr %3, i32 0, i32 0
  %5 = load ptr, ptr %4, align 8
  %6 = icmp ne ptr %5, null
  br i1 %6, label %7, label %9

7:                                                ; preds = %1
  invoke void @_ZN4Luau6detail14DenseHashTableINS_12AstNameTable5EntryES3_S3_NS0_16ItemInterfaceSetIS3_EENS2_9EntryHashESt8equal_toIS3_EE7destroyEv(ptr noundef nonnull align 8 dereferenceable(42) %3)
          to label %8 unwind label %10

8:                                                ; preds = %7
  br label %9

9:                                                ; preds = %8, %1
  ret void

10:                                               ; preds = %7
  %11 = landingpad { ptr, i32 }
          catch ptr null
  %12 = extractvalue { ptr, i32 } %11, 0
  call void @__clang_call_terminate(ptr %12) #11
  unreachable
}

; Function Attrs: mustprogress nounwind uwtable
define linkonce_odr dso_local void @_ZN4Luau12DenseHashSetINS_12AstNameTable5EntryENS1_9EntryHashESt8equal_toIS2_EED2Ev(ptr noundef nonnull align 8 dereferenceable(48) %0) unnamed_addr #1 comdat align 2 {
  %2 = alloca ptr, align 8
  store ptr %0, ptr %2, align 8
  %3 = load ptr, ptr %2, align 8
  %4 = getelementptr inbounds %"class.Luau::DenseHashSet", ptr %3, i32 0, i32 0
  call void @_ZN4Luau6detail14DenseHashTableINS_12AstNameTable5EntryES3_S3_NS0_16ItemInterfaceSetIS3_EENS2_9EntryHashESt8equal_toIS3_EED2Ev(ptr noundef nonnull align 8 dereferenceable(42) %4) #10
  ret void
}

; Function Attrs: mustprogress nounwind uwtable
define linkonce_odr dso_local void @_ZN4Luau12AstNameTableD2Ev(ptr noundef nonnull align 8 dereferenceable(56) %0) unnamed_addr #1 comdat align 2 {
  %2 = alloca ptr, align 8
  store ptr %0, ptr %2, align 8
  %3 = load ptr, ptr %2, align 8
  %4 = getelementptr inbounds %"class.Luau::AstNameTable", ptr %3, i32 0, i32 0
  call void @_ZN4Luau12DenseHashSetINS_12AstNameTable5EntryENS1_9EntryHashESt8equal_toIS2_EED2Ev(ptr noundef nonnull align 8 dereferenceable(48) %4) #10
  ret void
}

; Function Attrs: mustprogress nounwind uwtable
define linkonce_odr dso_local void @_ZN18JsonEncoderFixtureD2Ev(ptr noundef nonnull align 8 dereferenceable(72) %0) unnamed_addr #1 comdat align 2 {
  %2 = alloca ptr, align 8
  store ptr %0, ptr %2, align 8
  %3 = load ptr, ptr %2, align 8
  %4 = getelementptr inbounds %struct.JsonEncoderFixture, ptr %3, i32 0, i32 1
  call void @_ZN4Luau12AstNameTableD2Ev(ptr noundef nonnull align 8 dereferenceable(56) %4) #10
  %5 = getelementptr inbounds %struct.JsonEncoderFixture, ptr %3, i32 0, i32 0
  call void @_ZN4Luau9AllocatorD1Ev(ptr noundef nonnull align 8 dereferenceable(16) %5) #10
  ret void
}

; Function Attrs: mustprogress nounwind uwtable
define internal void @_ZN12_GLOBAL__N_122DOCTEST_ANON_CLASS_107D2Ev(ptr noundef nonnull align 8 dereferenceable(72) %0) unnamed_addr #1 align 2 {
  %2 = alloca ptr, align 8
  store ptr %0, ptr %2, align 8
  %3 = load ptr, ptr %2, align 8
  call void @_ZN18JsonEncoderFixtureD2Ev(ptr noundef nonnull align 8 dereferenceable(72) %3) #10
  ret void
}